Certificate:
    Data:
        Version: 3 (0x2)
        Serial Number: 17417651736703307415 (0xf1b7edf8cbaa8e97)
    Signature Algorithm: sha256WithRSAEncryption
        Issuer: C=AU, ST=Some-State, O=Internet Widgits Pty Ltd, CN=TONY
        Validity
            Not Before: Nov  3 03:11:18 2018 GMT
            Not After : Nov  2 03:11:18 2021 GMT
        Subject: C=AU, ST=Some-State, O=Internet Widgits Pty Ltd, CN=TONY
        Subject Public Key Info:
            Public Key Algorithm: rsaEncryption
                Public-Key: (2048 bit)
                Modulus:
                    00:e9:ea:b2:49:7e:51:c5:10:8e:f0:bd:f5:5c:1d:
                    e0:eb:dd:36:c8:4c:35:bb:13:0c:7e:67:32:a8:e5:
                    77:c6:c5:eb:1f:02:c4:c1:71:f6:f5:a4:a6:9b:81:
                    0e:5f:1e:62:39:ea:10:81:69:35:20:13:90:55:78:
                    08:44:4c:78:bd:80:6e:ad:40:97:8d:5a:58:56:b5:
                    f5:04:8e:20:a9:1f:fa:33:ae:99:a1:8d:f2:69:6c:
                    3b:8e:8a:50:9a:0d:85:5f:a0:cc:23:6a:f4:cb:39:
                    30:b3:79:c1:31:d5:c2:41:71:6c:80:91:bb:60:0b:
                    d7:ce:34:06:48:92:88:48:b3:c9:41:28:a7:5b:7d:
                    fc:5f:bd:67:90:44:8d:0e:a8:39:d5:3a:83:f4:62:
                    ce:ed:7a:50:8a:dc:e0:11:50:48:94:32:3f:f3:78:
                    f2:12:1a:f9:67:9e:10:ed:6b:c5:c3:9a:57:f6:ba:
                    f9:6c:b5:3c:a4:5c:40:3f:58:75:c5:ee:d7:6e:a0:
                    24:a1:ac:8a:af:6c:75:6b:fa:e1:22:2e:84:df:cc:
                    10:42:d9:ea:84:b9:b6:c2:9d:3a:13:0c:a4:3c:51:
                    c0:17:85:b2:89:ac:e9:fd:e8:38:19:7f:e7:0d:77:
                    0f:1d:8e:42:9e:a7:eb:e3:9a:80:96:40:cb:65:c9:
                    23:63
                Exponent: 65537 (0x10001)
        X509v3 extensions:
            X509v3 Subject Key Identifier: 
                FD:45:47:5D:F7:FD:F5:64:4D:3A:BC:FF:AE:74:F9:BB:6C:66:DC:91
            X509v3 Authority Key Identifier: 
                keyid:FD:45:47:5D:F7:FD:F5:64:4D:3A:BC:FF:AE:74:F9:BB:6C:66:DC:91

            X509v3 Basic Constraints: 
                CA:TRUE
    Signature Algorithm: sha256WithRSAEncryption
         dc:ad:72:42:8d:5d:29:31:12:4c:50:3d:78:55:ab:84:92:1c:
         dd:5d:e6:13:4c:80:ea:50:68:2a:e2:15:45:cd:db:13:83:9a:
         5d:f0:9f:ab:71:c5:ec:53:48:d8:1c:94:6c:95:aa:1d:5b:7c:
         62:01:14:f2:de:fb:bd:de:41:c2:9e:da:4c:a8:99:65:ac:9f:
         55:1d:1b:e2:3e:c2:42:1d:dc:b4:c8:7d:a7:2e:c2:a4:f1:df:
         e6:7c:a6:cb:82:1a:b5:3d:38:ed:21:0c:39:b3:ee:70:22:2b:
         fc:0d:c5:62:55:0f:76:72:6e:9f:d0:da:e3:e6:a5:86:18:7c:
         82:8d:90:dd:ed:7e:1a:b1:bf:08:e0:4d:37:ce:65:f0:1d:7d:
         c5:b1:e6:d5:27:76:74:be:af:33:42:68:f2:a6:56:a1:6b:de:
         07:c5:65:c9:ed:38:31:ea:5a:02:14:26:82:66:38:cf:2d:04:
         fc:b0:7e:9f:53:8f:5d:7e:1c:48:94:e0:88:7b:7f:41:93:be:
         b1:56:46:70:50:1d:22:bd:01:66:7b:d0:a1:e8:5b:d1:40:9e:
         cd:58:92:1a:0d:f2:e1:e1:4f:f1:58:84:5b:67:ab:cb:90:e0:
         2a:02:b5:fe:4a:ab:4e:b0:4f:81:1b:c9:4d:ce:08:4f:ba:af:
         96:01:62:14
-----BEGIN CERTIFICATE-----
MIIDezCCAmOgAwIBAgIJAPG37fjLqo6XMA0GCSqGSIb3DQEBCwUAMFQxCzAJBgNV
BAYTAkFVMRMwEQYDVQQIDApTb21lLVN0YXRlMSEwHwYDVQQKDBhJbnRlcm5ldCBX
aWRnaXRzIFB0eSBMdGQxDTALBgNVBAMMBFRPTlkwHhcNMTgxMTAzMDMxMTE4WhcN
MjExMTAyMDMxMTE4WjBUMQswCQYDVQQGEwJBVTETMBEGA1UECAwKU29tZS1TdGF0
ZTEhMB8GA1UECgwYSW50ZXJuZXQgV2lkZ2l0cyBQdHkgTHRkMQ0wCwYDVQQDDARU
T05ZMIIBIjANBgkqhkiG9w0BAQEFAAOCAQ8AMIIBCgKCAQEA6eqySX5RxRCO8L31
XB3g6902yEw1uxMMfmcyqOV3xsXrHwLEwXH29aSmm4EOXx5iOeoQgWk1IBOQVXgI
REx4vYBurUCXjVpYVrX1BI4gqR/6M66ZoY3yaWw7jopQmg2FX6DMI2r0yzkws3nB
MdXCQXFsgJG7YAvXzjQGSJKISLPJQSinW338X71nkESNDqg51TqD9GLO7XpQitzg
EVBIlDI/83jyEhr5Z54Q7WvFw5pX9rr5bLU8pFxAP1h1xe7XbqAkoayKr2x1a/rh
Ii6E38wQQtnqhLm2wp06EwykPFHAF4Wyiazp/eg4GX/nDXcPHY5Cnqfr45qAlkDL
ZckjYwIDAQABo1AwTjAdBgNVHQ4EFgQU/UVHXff99WRNOrz/rnT5u2xm3JEwHwYD
VR0jBBgwFoAU/UVHXff99WRNOrz/rnT5u2xm3JEwDAYDVR0TBAUwAwEB/zANBgkq
hkiG9w0BAQsFAAOCAQEA3K1yQo1dKTESTFA9eFWrhJIc3V3mE0yA6lBoKuIVRc3b
E4OaXfCfq3HF7FNI2ByUbJWqHVt8YgEU8t77vd5Bwp7aTKiZZayfVR0b4j7CQh3c
tMh9py7CpPHf5nymy4IatT047SEMObPucCIr/A3FYlUPdnJun9Da4+alhhh8go2Q
3e1+GrG/COBNN85l8B19xbHm1Sd2dL6vM0Jo8qZWoWveB8Vlye04MepaAhQmgmY4
zy0E/LB+n1OPXX4cSJTgiHt/QZO+sVZGcFAdIr0BZnvQoehb0UCezViSGg3y4eFP
8ViEW2ery5DgKgK1/kqrTrBPgRvJTc4IT7qvlgFiFA==
-----END CERTIFICATE-----
