Certificate:
    Data:
        Version: 3 (0x2)
        Serial Number: 17417651736703307416 (0xf1b7edf8cbaa8e98)
    Signature Algorithm: sha256WithRSAEncryption
        Issuer: C=AU, ST=Some-State, O=Internet Widgits Pty Ltd, CN=TONY
        Validity
            Not Before: Nov  3 03:13:51 2018 GMT
            Not After : Nov  3 03:13:51 2019 GMT
        Subject: C=AU, ST=Some-State, O=Internet Widgits Pty Ltd, CN=TONY
        Subject Public Key Info:
            Public Key Algorithm: rsaEncryption
                Public-Key: (1024 bit)
                Modulus:
                    00:ac:5a:0d:e1:32:a6:76:bd:6d:09:0c:2e:2b:61:
                    04:f5:d2:e8:77:25:aa:e4:ec:05:98:53:9e:ad:54:
                    13:fa:81:be:09:a6:c1:d8:1e:8b:c2:1b:ec:3d:4c:
                    82:91:7f:4d:fd:cc:3e:89:1e:65:2b:84:c7:5b:e9:
                    b9:fc:38:a5:de:7e:f7:b7:65:1c:67:21:0b:0a:a8:
                    9e:a4:b7:53:91:a5:43:f2:97:10:66:81:e9:01:54:
                    38:46:db:9e:9a:8e:74:53:4b:c1:12:6b:3b:22:ef:
                    25:60:c6:c0:d7:8b:d5:c3:90:45:23:d8:19:88:04:
                    e2:8d:17:f0:16:c8:05:66:97
                Exponent: 65537 (0x10001)
        X509v3 extensions:
            X509v3 Basic Constraints: 
                CA:FALSE
            Netscape Comment: 
                OpenSSL Generated Certificate
            X509v3 Subject Key Identifier: 
                A8:62:83:EC:FF:90:79:99:0F:A4:E6:C3:38:D8:6D:FE:B3:AB:30:7B
            X509v3 Authority Key Identifier: 
                keyid:FD:45:47:5D:F7:FD:F5:64:4D:3A:BC:FF:AE:74:F9:BB:6C:66:DC:91

    Signature Algorithm: sha256WithRSAEncryption
         20:9e:5d:e5:54:68:3b:04:c4:f2:36:9f:a1:aa:52:b5:38:56:
         71:3b:5a:d2:59:8b:d4:ec:0a:3d:e0:5e:dd:df:88:e6:0f:f7:
         ee:71:2f:03:70:ef:ac:4d:3a:62:bf:e9:a7:82:7a:08:3f:d8:
         2a:ad:c2:1b:f9:b8:5b:ad:45:58:e7:4a:87:b8:47:06:48:47:
         3b:d7:67:ba:b2:31:2f:85:f3:1e:6a:1c:ba:c7:f2:97:fb:79:
         cc:4c:33:dc:b5:0d:24:75:6f:c9:1c:dc:53:72:0b:19:0b:1c:
         0f:5e:de:f4:d6:74:63:df:92:27:b2:d6:c8:59:b0:d3:9b:15:
         b3:b1:40:2b:c6:b5:9c:29:48:49:aa:3e:dc:4b:46:cb:66:54:
         8d:c2:61:f3:b8:21:1e:d4:fb:05:11:9b:38:d9:b8:06:c8:02:
         01:52:05:2c:b1:65:de:b2:19:7a:9f:d4:07:93:95:0f:ee:4d:
         9a:3e:e7:af:67:48:9f:1a:b7:c7:db:4c:ea:e1:97:b7:3d:10:
         ee:93:87:72:77:9f:32:18:7e:0f:c5:e1:bc:ff:d8:9a:4c:ab:
         26:09:37:aa:34:f8:85:ff:8d:77:73:0a:f6:5e:03:83:d8:3f:
         13:98:39:c9:e9:b0:b7:38:a6:34:c0:f8:58:ff:f5:b9:bf:6b:
         1d:02:c0:53
-----BEGIN CERTIFICATE-----
MIIDIjCCAgqgAwIBAgIJAPG37fjLqo6YMA0GCSqGSIb3DQEBCwUAMFQxCzAJBgNV
BAYTAkFVMRMwEQYDVQQIDApTb21lLVN0YXRlMSEwHwYDVQQKDBhJbnRlcm5ldCBX
aWRnaXRzIFB0eSBMdGQxDTALBgNVBAMMBFRPTlkwHhcNMTgxMTAzMDMxMzUxWhcN
MTkxMTAzMDMxMzUxWjBUMQswCQYDVQQGEwJBVTETMBEGA1UECAwKU29tZS1TdGF0
ZTEhMB8GA1UECgwYSW50ZXJuZXQgV2lkZ2l0cyBQdHkgTHRkMQ0wCwYDVQQDDARU
T05ZMIGfMA0GCSqGSIb3DQEBAQUAA4GNADCBiQKBgQCsWg3hMqZ2vW0JDC4rYQT1
0uh3Jark7AWYU56tVBP6gb4JpsHYHovCG+w9TIKRf039zD6JHmUrhMdb6bn8OKXe
fve3ZRxnIQsKqJ6kt1ORpUPylxBmgekBVDhG256ajnRTS8ESazsi7yVgxsDXi9XD
kEUj2BmIBOKNF/AWyAVmlwIDAQABo3sweTAJBgNVHRMEAjAAMCwGCWCGSAGG+EIB
DQQfFh1PcGVuU1NMIEdlbmVyYXRlZCBDZXJ0aWZpY2F0ZTAdBgNVHQ4EFgQUqGKD
7P+QeZkPpObDONht/rOrMHswHwYDVR0jBBgwFoAU/UVHXff99WRNOrz/rnT5u2xm
3JEwDQYJKoZIhvcNAQELBQADggEBACCeXeVUaDsExPI2n6GqUrU4VnE7WtJZi9Ts
Cj3gXt3fiOYP9+5xLwNw76xNOmK/6aeCegg/2Cqtwhv5uFutRVjnSoe4RwZIRzvX
Z7qyMS+F8x5qHLrH8pf7ecxMM9y1DSR1b8kc3FNyCxkLHA9e3vTWdGPfkiey1shZ
sNObFbOxQCvGtZwpSEmqPtxLRstmVI3CYfO4IR7U+wURmzjZuAbIAgFSBSyxZd6y
GXqf1AeTlQ/uTZo+569nSJ8at8fbTOrhl7c9EO6Th3J3nzIYfg/F4bz/2JpMqyYJ
N6o0+IX/jXdzCvZeA4PYPxOYOcnpsLc4pjTA+Fj/9bm/ax0CwFM=
-----END CERTIFICATE-----
